(lp1
(dp2
Vsupport
p3
(lp4
I1
aI2
aI5
aI8
aI9
aI12
aI14
asVterms
p5
(lp6
VEurope
p7
aVPublic
p8
aVGold
p9
a(lp10
asVcoverage
p11
(lp12
I1
aI2
aI5
aI8
aI9
aI12
aI14
aI25
asVscores
p13
(dp14
Vz_score
p15
Fnan
sVpage_p
p16
Fnan
sVwracc
p17
F0.10000000000000001
sVgsea_p
p18
Fnan
sVenrichment_score
p19
F0.39772727272727265
sVunadjusted_p
p20
F0.017591204397801364
sVfisher_p
p21
Fnan
sVaggregate_p
p22
Nssa(dp23
Vsupport
p24
(lp25
I0
aI1
aI3
aI5
aI13
asVterms
p26
(lp27
VEurope
p28
aVDoctor
p29
aVAccount
p30
a(lp31
asVcoverage
p32
(lp33
I0
aI1
aI3
aI5
aI13
aI19
asVscores
p34
(dp35
Vz_score
p36
Fnan
sVpage_p
p37
Fnan
sVwracc
p38
F0.06666666666666668
sVgsea_p
p39
Fnan
sVenrichment_score
p40
F0.58333333333333326
sVunadjusted_p
p41
F0.084291187739463883
sVfisher_p
p42
Fnan
sVaggregate_p
p43
Nssa(dp44
Vsupport
p45
(lp46
I2
aI6
aI11
aI14
asVterms
p47
(lp48
VBavaria
p49
aVOccupation
p50
aVAccount
p51
a(lp52
asVcoverage
p53
(lp54
I2
aI6
aI11
aI14
aI21
asVscores
p55
(dp56
Vz_score
p57
Fnan
sVpage_p
p58
Fnan
sVwracc
p59
F0.050000000000000003
sVgsea_p
p60
Fnan
sVenrichment_score
p61
F0.20000000000000001
sVunadjusted_p
p62
F0.1647509578544068
sVfisher_p
p63
Fnan
sVaggregate_p
p64
Nssa(dp65
Vsupport
p66
(lp67
I6
aI7
aI10
aI11
asVterms
p68
(lp69
VGermany
p70
aVService
p71
aVInvestmentFund
p72
aVAccount
p73
a(lp74
asVcoverage
p75
(lp76
I6
aI7
aI10
aI11
aI15
asVscores
p77
(dp78
Vz_score
p79
Fnan
sVpage_p
p80
Fnan
sVwracc
p81
F0.050000000000000003
sVgsea_p
p82
Fnan
sVenrichment_score
p83
F0.16
sVunadjusted_p
p84
F0.1647509578544068
sVfisher_p
p85
Fnan
sVaggregate_p
p86
Nssa(dp87
Vsupport
p88
(lp89
I0
aI1
aI3
aI5
aI13
asVterms
p90
(lp91
VEurope
p92
aVHealth
p93
aVAccount
p94
a(lp95
asVcoverage
p96
(lp97
I0
aI1
aI3
aI5
aI13
aI19
aI26
asVscores
p98
(dp99
Vz_score
p100
Fnan
sVpage_p
p101
Fnan
sVwracc
p102
F0
sVgsea_p
p103
Fnan
sVenrichment_score
p104
F0.48447204968944096
sVunadjusted_p
p105
F0.19492337164751281
sVfisher_p
p106
Fnan
sVaggregate_p
p107
Nssa(dp108
Vsupport
p109
(lp110
I1
aI3
aI5
aI13
asVterms
p111
(lp112
VEurope
p113
aVDoctor
p114
aVDeposit
p115
a(lp116
asVcoverage
p117
(lp118
I1
aI3
aI5
aI13
aI19
asVscores
p119
(dp120
Vz_score
p121
Fnan
sVpage_p
p122
Fnan
sVwracc
p123
F0
sVgsea_p
p124
Fnan
sVenrichment_score
p125
F0.48000000000000004
sVunadjusted_p
p126
F0.1647509578544068
sVfisher_p
p127
Fnan
sVaggregate_p
p128
Nssa(dp129
Vsupport
p130
(lp131
I0
aI3
aI5
asVterms
p132
(lp133
VEurope
p134
aVHealth
p135
aVInsurance
p136
a(lp137
asVcoverage
p138
(lp139
I0
aI3
aI5
aI19
aI26
asVscores
p140
(dp141
Vz_score
p142
Fnan
sVpage_p
p143
Fnan
sVwracc
p144
F0
sVgsea_p
p145
Fnan
sVenrichment_score
p146
F0.48000000000000004
sVunadjusted_p
p147
F0.500000000000002
sVfisher_p
p148
Fnan
sVaggregate_p
p149
Nssa(dp150
Vsupport
p151
(lp152
I0
aI3
aI5
aI9
asVterms
p153
(lp154
VItaly
p155
aVOccupation
p156
aVInsurance
p157
a(lp158
asVcoverage
p159
(lp160
I0
aI3
aI5
aI9
aI16
aI24
asVscores
p161
(dp162
Vz_score
p163
Fnan
sVpage_p
p164
Fnan
sVwracc
p165
F0
sVgsea_p
p166
Fnan
sVenrichment_score
p167
F0.41666666666666663
sVunadjusted_p
p168
F0.32567049808429227
sVfisher_p
p169
Fnan
sVaggregate_p
p170
Nssa(dp171
Vsupport
p172
(lp173
I0
aI2
aI3
aI5
aI8
aI9
asVterms
p174
(lp175
VEurope
p176
aVPublic
p177
aVInsurance
p178
a(lp179
asVcoverage
p180
(lp181
I0
aI2
aI3
aI5
aI8
aI9
aI17
aI19
aI22
aI26
asVscores
p182
(dp183
Vz_score
p184
Fnan
sVpage_p
p185
Fnan
sVwracc
p186
F0
sVgsea_p
p187
Fnan
sVenrichment_score
p188
F0.40000000000000002
sVunadjusted_p
p189
F0.34992503748126641
sVfisher_p
p190
Fnan
sVaggregate_p
p191
Nssa(dp192
Vsupport
p193
(lp194
I1
aI3
aI5
aI8
aI9
aI13
asVterms
p195
(lp196
VEurope
p197
aVPublic
p198
aVDeposit
p199
a(lp200
asVcoverage
p201
(lp202
I1
aI3
aI5
aI8
aI9
aI13
aI19
aI22
asVscores
p203
(dp204
Vz_score
p205
Fnan
sVpage_p
p206
Fnan
sVwracc
p207
F0
sVgsea_p
p208
Fnan
sVenrichment_score
p209
F0.39772727272727271
sVunadjusted_p
p210
F0.10737964351157915
sVfisher_p
p211
Fnan
sVaggregate_p
p212
Nssa(dp213
Vsupport
p214
(lp215
I2
aI5
aI8
asVterms
p216
(lp217
VEurope
p218
aVPublic
p219
aVRegular
p220
a(lp221
asVcoverage
p222
(lp223
I2
aI5
aI8
aI19
aI22
asVscores
p224
(dp225
Vz_score
p226
Fnan
sVpage_p
p227
Fnan
sVwracc
p228
F0
sVgsea_p
p229
Fnan
sVenrichment_score
p230
F0.35999999999999999
sVunadjusted_p
p231
F0.500000000000002
sVfisher_p
p232
Fnan
sVaggregate_p
p233
Nssa(dp234
Vsupport
p235
(lp236
I1
aI4
aI8
asVterms
p237
(lp238
VPoland
p239
aVOccupation
p240
aVGold
p241
a(lp242
asVcoverage
p243
(lp244
I1
aI4
aI8
aI25
aI28
asVscores
p245
(dp246
Vz_score
p247
Fnan
sVpage_p
p248
Fnan
sVwracc
p249
F0
sVgsea_p
p250
Fnan
sVenrichment_score
p251
F0.35999999999999999
sVunadjusted_p
p252
F0.500000000000002
sVfisher_p
p253
Fnan
sVaggregate_p
p254
Nssa(dp255
Vsupport
p256
(lp257
I0
aI1
aI2
aI3
aI4
aI5
aI6
aI7
aI8
aI9
aI10
aI11
aI12
aI13
aI14
asVterms
p258
(lp259
VEurope
p260
aVOccupation
p261
aVAccount
p262
a(lp263
asVcoverage
p264
(lp265
I0
aI1
aI2
aI3
aI4
aI5
aI6
aI7
aI8
aI9
aI10
aI11
aI12
aI13
aI14
aI15
aI16
aI17
aI18
aI19
aI20
aI21
aI22
aI23
aI24
aI25
aI26
aI27
aI28
aI29
asVscores
p266
(dp267
Vz_score
p268
Fnan
sVpage_p
p269
Fnan
sVwracc
p270
F0
sVgsea_p
p271
Fnan
sVenrichment_score
p272
F0.33333333333333331
sVunadjusted_p
p273
F1
sVfisher_p
p274
Fnan
sVaggregate_p
p275
Nssa(dp276
Vsupport
p277
(lp278
I0
aI3
aI11
asVterms
p279
(lp280
VEurope
p281
aVOccupation
p282
aVTechnologyShare
p283
a(lp284
asVcoverage
p285
(lp286
I0
aI3
aI11
aI15
aI28
asVscores
p287
(dp288
Vz_score
p289
Fnan
sVpage_p
p290
Fnan
sVwracc
p291
F0
sVgsea_p
p292
Fnan
sVenrichment_score
p293
F0.32000000000000001
sVunadjusted_p
p294
F0.500000000000002
sVfisher_p
p295
Fnan
sVaggregate_p
p296
Nssa(dp297
Vsupport
p298
(lp299
I0
aI3
aI13
asVterms
p300
(lp301
VEurope
p302
aVPublic
p303
aVInvestmentFund
p304
a(lp305
asVcoverage
p306
(lp307
I0
aI3
aI13
aI19
aI22
asVscores
p308
(dp309
Vz_score
p310
Fnan
sVpage_p
p311
Fnan
sVwracc
p312
F0
sVgsea_p
p313
Fnan
sVenrichment_score
p314
F0.32000000000000001
sVunadjusted_p
p315
F0.500000000000002
sVfisher_p
p316
Fnan
sVaggregate_p
p317
Nssa(dp318
Vsupport
p319
(lp320
I0
aI3
aI13
asVterms
p321
(lp322
VEurope
p323
aVHealth
p324
aVClassic
p325
a(lp326
asVcoverage
p327
(lp328
I0
aI3
aI13
aI19
aI26
asVscores
p329
(dp330
Vz_score
p331
Fnan
sVpage_p
p332
Fnan
sVwracc
p333
F0
sVgsea_p
p334
Fnan
sVenrichment_score
p335
F0.32000000000000001
sVunadjusted_p
p336
F0.500000000000002
sVfisher_p
p337
Fnan
sVaggregate_p
p338
Nssa(dp339
Vsupport
p340
(lp341
I1
aI2
aI4
aI5
aI6
aI8
aI9
aI12
aI14
asVterms
p342
(lp343
VEurope
p344
aVOccupation
p345
aVGold
p346
a(lp347
asVcoverage
p348
(lp349
I1
aI2
aI4
aI5
aI6
aI8
aI9
aI12
aI14
aI16
aI18
aI23
aI25
aI28
asVscores
p350
(dp351
Vz_score
p352
Fnan
sVpage_p
p353
Fnan
sVwracc
p354
F0
sVgsea_p
p355
Fnan
sVenrichment_score
p356
F0.3125
sVunadjusted_p
p357
F0.13615173837230229
sVfisher_p
p358
Fnan
sVaggregate_p
p359
Nssa(dp360
Vsupport
p361
(lp362
I1
aI5
aI8
aI9
aI13
asVterms
p363
(lp364
VEurope
p365
aVPublic
p366
aVShortTerm
p367
a(lp368
asVcoverage
p369
(lp370
I1
aI5
aI8
aI9
aI13
aI19
aI22
asVscores
p371
(dp372
Vz_score
p373
Fnan
sVpage_p
p374
Fnan
sVwracc
p375
F0
sVgsea_p
p376
Fnan
sVenrichment_score
p377
F0.3105590062111801
sVunadjusted_p
p378
F0.19492337164751281
sVfisher_p
p379
Fnan
sVaggregate_p
p380
Nssa(dp381
Vsupport
p382
(lp383
I3
aI4
aI11
asVterms
p384
(lp385
VEurope
p386
aVOccupation
p387
aVLongTerm
p388
a(lp389
asVcoverage
p390
(lp391
I3
aI4
aI11
aI15
aI23
asVscores
p392
(dp393
Vz_score
p394
Fnan
sVpage_p
p395
Fnan
sVwracc
p396
F0
sVgsea_p
p397
Fnan
sVenrichment_score
p398
F0.28000000000000003
sVunadjusted_p
p399
F0.500000000000002
sVfisher_p
p400
Fnan
sVaggregate_p
p401
Nssa(dp402
Vsupport
p403
(lp404
I0
aI2
aI3
aI5
aI7
aI8
aI9
aI11
asVterms
p405
(lp406
VEurope
p407
aVOccupation
p408
aVInsurance
p409
a(lp410
asVcoverage
p411
(lp412
I0
aI2
aI3
aI5
aI7
aI8
aI9
aI11
aI16
aI17
aI19
aI22
aI24
aI26
aI28
asVscores
p413
(dp414
Vz_score
p415
Fnan
sVpage_p
p416
Fnan
sVwracc
p417
F0
sVgsea_p
p418
Fnan
sVenrichment_score
p419
F0.26666666666666666
sVunadjusted_p
p420
F0.50000000000000666
sVfisher_p
p421
Fnan
sVaggregate_p
p422
Nssa(dp423
Vsupport
p424
(lp425
I1
aI3
aI12
asVterms
p426
(lp427
VEurope
p428
aVPublic
p429
aVCar
p430
a(lp431
asVcoverage
p432
(lp433
I1
aI3
aI12
aI17
aI20
aI29
asVscores
p434
(dp435
Vz_score
p436
Fnan
sVpage_p
p437
Fnan
sVwracc
p438
F0
sVgsea_p
p439
Fnan
sVenrichment_score
p440
F0.25
sVunadjusted_p
p441
F0.67432950191571095
sVfisher_p
p442
Fnan
sVaggregate_p
p443
Nssa(dp444
Vsupport
p445
(lp446
I1
aI4
aI8
asVterms
p447
(lp448
VPoland
p449
aVOccupation
p450
aVDeposit
p451
a(lp452
asVcoverage
p453
(lp454
I1
aI4
aI8
aI19
aI22
aI28
asVscores
p455
(dp456
Vz_score
p457
Fnan
sVpage_p
p458
Fnan
sVwracc
p459
F0
sVgsea_p
p460
Fnan
sVenrichment_score
p461
F0.25
sVunadjusted_p
p462
F0.67432950191571095
sVfisher_p
p463
Fnan
sVaggregate_p
p464
Nssa(dp465
Vsupport
p466
(lp467
I0
aI3
aI13
asVterms
p468
(lp469
VItaly
p470
aVPublic
p471
aVClassic
p472
a(lp473
asVcoverage
p474
(lp475
I0
aI3
aI13
aI20
aI27
aI29
asVscores
p476
(dp477
Vz_score
p478
Fnan
sVpage_p
p479
Fnan
sVwracc
p480
F0
sVgsea_p
p481
Fnan
sVenrichment_score
p482
F0.25
sVunadjusted_p
p483
F0.67432950191571095
sVfisher_p
p484
Fnan
sVaggregate_p
p485
Nssa(dp486
Vsupport
p487
(lp488
I1
aI3
aI4
aI5
aI6
aI8
aI9
aI11
aI13
asVterms
p489
(lp490
VEurope
p491
aVOccupation
p492
aVDeposit
p493
a(lp494
asVcoverage
p495
(lp496
I1
aI3
aI4
aI5
aI6
aI8
aI9
aI11
aI13
aI15
aI18
aI19
aI22
aI23
aI24
aI28
asVscores
p497
(dp498
Vz_score
p499
Fnan
sVpage_p
p500
Fnan
sVwracc
p501
F0
sVgsea_p
p502
Fnan
sVenrichment_score
p503
F0.22321428571428573
sVunadjusted_p
p504
F0.35762459327612395
sVfisher_p
p505
Fnan
sVaggregate_p
p506
Nssa(dp507
Vsupport
p508
(lp509
I0
aI1
aI2
aI3
aI5
aI8
aI9
aI12
aI13
aI14
asVterms
p510
(lp511
VEurope
p512
aVPublic
p513
aVAccount
p514
a(lp515
asVcoverage
p516
(lp517
I0
aI1
aI2
aI3
aI5
aI8
aI9
aI12
aI13
aI14
aI17
aI19
aI20
aI22
aI25
aI26
aI27
aI29
asVscores
p518
(dp519
Vz_score
p520
Fnan
sVpage_p
p521
Fnan
sVwracc
p522
F0
sVgsea_p
p523
Fnan
sVenrichment_score
p524
F0.22222222222222221
sVunadjusted_p
p525
F0.35519082563981497
sVfisher_p
p526
Fnan
sVaggregate_p
p527
Nssa(dp528
Vsupport
p529
(lp530
I3
aI5
aI9
aI13
asVterms
p531
(lp532
VItaly
p533
aVOccupation
p534
aVDeposit
p535
a(lp536
asVcoverage
p537
(lp538
I3
aI5
aI9
aI13
aI23
aI24
asVscores
p539
(dp540
Vz_score
p541
Fnan
sVpage_p
p542
Fnan
sVwracc
p543
F0
sVgsea_p
p544
Fnan
sVenrichment_score
p545
F0.20833333333333334
sVunadjusted_p
p546
F0.32567049808429227
sVfisher_p
p547
Fnan
sVaggregate_p
p548
Nssa(dp549
Vsupport
p550
(lp551
I0
aI3
aI13
asVterms
p552
(lp553
VItaly
p554
aVOccupation
p555
aVClassic
p556
a(lp557
asVcoverage
p558
(lp559
I0
aI3
aI13
aI20
aI24
aI27
aI29
asVscores
p560
(dp561
Vz_score
p562
Fnan
sVpage_p
p563
Fnan
sVwracc
p564
F0
sVgsea_p
p565
Fnan
sVenrichment_score
p566
F0.19875776397515527
sVunadjusted_p
p567
F0.80507662835248928
sVfisher_p
p568
Fnan
sVaggregate_p
p569
Nssa(dp570
Vsupport
p571
(lp572
I1
aI5
aI6
aI8
aI9
aI13
asVterms
p573
(lp574
VEurope
p575
aVOccupation
p576
aVShortTerm
p577
a(lp578
asVcoverage
p579
(lp580
I1
aI5
aI6
aI8
aI9
aI13
aI18
aI19
aI22
aI24
aI28
asVscores
p581
(dp582
Vz_score
p583
Fnan
sVpage_p
p584
Fnan
sVwracc
p585
F0
sVgsea_p
p586
Fnan
sVenrichment_score
p587
F0.19138755980861247
sVunadjusted_p
p588
F0.50000000000000722
sVfisher_p
p589
Fnan
sVaggregate_p
p590
Nssa(dp591
Vsupport
p592
(lp593
I0
aI3
aI5
aI9
aI12
aI13
asVterms
p594
(lp595
VItaly
p596
aVPublic
p597
aVAccount
p598
a(lp599
asVcoverage
p600
(lp601
I0
aI3
aI5
aI9
aI12
aI13
aI20
aI27
aI29
asVscores
p602
(dp603
Vz_score
p604
Fnan
sVpage_p
p605
Fnan
sVwracc
p606
F0
sVgsea_p
p607
Fnan
sVenrichment_score
p608
F0.19047619047619047
sVunadjusted_p
p609
F0.21349325337331618
sVfisher_p
p610
Fnan
sVaggregate_p
p611
Nssa(dp612
Vsupport
p613
(lp614
I1
aI8
asVterms
p615
(lp616
VPoland
p617
aVOccupation
p618
aVShortTerm
p619
a(lp620
asVcoverage
p621
(lp622
I1
aI8
aI19
aI22
aI28
asVscores
p623
(dp624
Vz_score
p625
Fnan
sVpage_p
p626
Fnan
sVwracc
p627
F0
sVgsea_p
p628
Fnan
sVenrichment_score
p629
F0.16
sVunadjusted_p
p630
F0.83524904214559847
sVfisher_p
p631
Fnan
sVaggregate_p
p632
Nssa(dp633
Vsupport
p634
(lp635
I1
aI4
asVterms
p636
(lp637
VPoland
p638
aVOccupation
p639
aVLoan
p640
a(lp641
asVcoverage
p642
(lp643
I1
aI4
aI17
aI19
aI22
aI25
aI28
asVscores
p644
(dp645
Vz_score
p646
Fnan
sVpage_p
p647
Fnan
sVwracc
p648
F0
sVgsea_p
p649
Fnan
sVenrichment_score
p650
F0.15527950310559005
sVunadjusted_p
p651
F0.95996168582375474
sVfisher_p
p652
Fnan
sVaggregate_p
p653
Nssa(dp654
Vsupport
p655
(lp656
I4
aI6
asVterms
p657
(lp658
VEurope
p659
aVPrivate
p660
aVGold
p661
a(lp662
asVcoverage
p663
(lp664
I4
aI6
aI16
aI18
aI23
aI28
asVscores
p665
(dp666
Vz_score
p667
Fnan
sVpage_p
p668
Fnan
sVwracc
p669
F0
sVgsea_p
p670
Fnan
sVenrichment_score
p671
F0.125
sVunadjusted_p
p672
F0.91570881226053735
sVfisher_p
p673
Fnan
sVaggregate_p
p674
Nssa(dp675
Vsupport
p676
(lp677
I3
aI5
aI9
aI12
asVterms
p678
(lp679
VItaly
p680
aVPublic
p681
aVLoan
p682
a(lp683
asVcoverage
p684
(lp685
I3
aI5
aI9
aI12
aI20
aI27
aI29
asVscores
p686
(dp687
Vz_score
p688
Fnan
sVpage_p
p689
Fnan
sVwracc
p690
F0
sVgsea_p
p691
Fnan
sVenrichment_score
p692
F0.12422360248447203
sVunadjusted_p
p693
F0.50000000000000833
sVfisher_p
p694
Fnan
sVaggregate_p
p695
Nssa(dp696
Vsupport
p697
(lp698
I2
aI5
aI8
aI11
asVterms
p699
(lp700
VEurope
p701
aVOccupation
p702
aVRegular
p703
a(lp704
asVcoverage
p705
(lp706
I2
aI5
aI8
aI11
aI16
aI19
aI22
aI28
asVscores
p707
(dp708
Vz_score
p709
Fnan
sVpage_p
p710
Fnan
sVwracc
p711
F0
sVgsea_p
p712
Fnan
sVenrichment_score
p713
F0.10227272727272727
sVunadjusted_p
p714
F0.65917041479261362
sVfisher_p
p715
Fnan
sVaggregate_p
p716
Nssa(dp717
Vsupport
p718
(lp719
I0
aI3
aI13
asVterms
p720
(lp721
VEurope
p722
aVPublic
p723
aVClassic
p724
a(lp725
asVcoverage
p726
(lp727
I0
aI3
aI13
aI17
aI19
aI20
aI22
aI26
aI27
aI29
asVscores
p728
(dp729
Vz_score
p730
Fnan
sVpage_p
p731
Fnan
sVwracc
p732
F0
sVgsea_p
p733
Fnan
sVenrichment_score
p734
F0.10000000000000001
sVunadjusted_p
p735
F0.97491254372813629
sVfisher_p
p736
Fnan
sVaggregate_p
p737
Nssa(dp738
Vsupport
p739
(lp740
I1
aI8
asVterms
p741
(lp742
VPoland
p743
aVPublic
p744
aVAccount
p745
a(lp746
asVcoverage
p747
(lp748
I1
aI8
aI17
aI19
aI22
aI25
aI26
asVscores
p749
(dp750
Vz_score
p751
Fnan
sVpage_p
p752
Fnan
sVwracc
p753
F0
sVgsea_p
p754
Fnan
sVenrichment_score
p755
F0.099378881987577633
sVunadjusted_p
p756
F0.95996168582375474
sVfisher_p
p757
Fnan
sVaggregate_p
p758
Nssa(dp759
Vsupport
p760
(lp761
I2
aI6
aI7
aI10
aI11
aI14
asVterms
p762
(lp763
VGermany
p764
aVOccupation
p765
aVAccount
p766
a(lp767
asVcoverage
p768
(lp769
I2
aI6
aI7
aI10
aI11
aI14
aI15
aI18
aI21
asVscores
p770
(dp771
Vz_score
p772
Fnan
sVpage_p
p773
Fnan
sVwracc
p774
F0
sVgsea_p
p775
Fnan
sVenrichment_score
p776
F0.095238095238095233
sVunadjusted_p
p777
F0.21349325337331618
sVfisher_p
p778
Fnan
sVaggregate_p
p779
Nssa(dp780
Vsupport
p781
(lp782
I6
aI7
aI10
aI11
asVterms
p783
(lp784
VEurope
p785
aVService
p786
aVInvestmentFund
p787
aVAccount
p788
a(lp789
asVcoverage
p790
(lp791
I6
aI7
aI10
aI11
aI15
aI16
asVscores
p792
(dp793
Vz_score
p794
Fnan
sVpage_p
p795
Fnan
sVwracc
p796
F0
sVgsea_p
p797
Fnan
sVenrichment_score
p798
F0.083333333333333343
sVunadjusted_p
p799
F0.32567049808429227
sVfisher_p
p800
Fnan
sVaggregate_p
p801
Nssa(dp802
Vsupport
p803
(lp804
I6
aI7
aI10
aI11
asVterms
p805
(lp806
VGermany
p807
aVPrivate
p808
aVInvestmentFund
p809
aVAccount
p810
a(lp811
asVcoverage
p812
(lp813
I6
aI7
aI10
aI11
aI15
aI18
asVscores
p814
(dp815
Vz_score
p816
Fnan
sVpage_p
p817
Fnan
sVwracc
p818
F0
sVgsea_p
p819
Fnan
sVenrichment_score
p820
F0.083333333333333343
sVunadjusted_p
p821
F0.32567049808429227
sVfisher_p
p822
Fnan
sVaggregate_p
p823
Nssa(dp824
Vsupport
p825
(lp826
I0
aI3
aI5
aI9
aI12
aI13
asVterms
p827
(lp828
VItaly
p829
aVOccupation
p830
aVAccount
p831
a(lp832
asVcoverage
p833
(lp834
I0
aI3
aI5
aI9
aI12
aI13
aI16
aI20
aI23
aI24
aI27
aI29
asVscores
p835
(dp836
Vz_score
p837
Fnan
sVpage_p
p838
Fnan
sVwracc
p839
F0
sVgsea_p
p840
Fnan
sVenrichment_score
p841
F0.083333333333333329
sVunadjusted_p
p842
F0.64480917436019525
sVfisher_p
p843
Fnan
sVaggregate_p
p844
Nssa(dp845
Vsupport
p846
(lp847
I2
aI8
aI14
asVterms
p848
(lp849
VEurope
p850
aVDefense
p851
aVAccount
p852
a(lp853
asVcoverage
p854
(lp855
I2
aI8
aI14
aI22
aI25
aI29
asVscores
p856
(dp857
Vz_score
p858
Fnan
sVpage_p
p859
Fnan
sVwracc
p860
F0
sVgsea_p
p861
Fnan
sVenrichment_score
p862
F0.083333333333333329
sVunadjusted_p
p863
F0.67432950191571095
sVfisher_p
p864
Fnan
sVaggregate_p
p865
Nssa(dp866
Vsupport
p867
(lp868
I5
aI9
aI12
asVterms
p869
(lp870
VItaly
p871
aVOccupation
p872
aVGold
p873
a(lp874
asVcoverage
p875
(lp876
I5
aI9
aI12
aI16
aI23
asVscores
p877
(dp878
Vz_score
p879
Fnan
sVpage_p
p880
Fnan
sVwracc
p881
F0
sVgsea_p
p882
Fnan
sVenrichment_score
p883
F0.080000000000000016
sVunadjusted_p
p884
F0.500000000000002
sVfisher_p
p885
Fnan
sVaggregate_p
p886
Nssa(dp887
Vsupport
p888
(lp889
I3
aI12
asVterms
p890
(lp891
VCalabria
p892
aVOccupation
p893
aVCar
p894
a(lp895
asVcoverage
p896
(lp897
I3
aI12
aI20
aI24
aI29
asVscores
p898
(dp899
Vz_score
p900
Fnan
sVpage_p
p901
Fnan
sVwracc
p902
F0
sVgsea_p
p903
Fnan
sVenrichment_score
p904
F0.080000000000000016
sVunadjusted_p
p905
F0.83524904214559847
sVfisher_p
p906
Fnan
sVaggregate_p
p907
Nssa(dp908
Vsupport
p909
(lp910
I5
aI9
asVterms
p911
(lp912
VItaly
p913
aVOccupation
p914
aVApartment
p915
a(lp916
asVcoverage
p917
(lp918
I5
aI9
aI16
aI23
aI27
asVscores
p919
(dp920
Vz_score
p921
Fnan
sVpage_p
p922
Fnan
sVwracc
p923
F0
sVgsea_p
p924
Fnan
sVenrichment_score
p925
F0.080000000000000016
sVunadjusted_p
p926
F0.83524904214559847
sVfisher_p
p927
Fnan
sVaggregate_p
p928
Nssa(dp929
Vsupport
p930
(lp931
I3
aI12
asVterms
p932
(lp933
VCalabria
p934
aVPublic
p935
aVLoan
p936
aVAccount
p937
a(lp938
asVcoverage
p939
(lp940
I3
aI12
aI20
aI27
aI29
asVscores
p941
(dp942
Vz_score
p943
Fnan
sVpage_p
p944
Fnan
sVwracc
p945
F0
sVgsea_p
p946
Fnan
sVenrichment_score
p947
F0.080000000000000016
sVunadjusted_p
p948
F0.83524904214559847
sVfisher_p
p949
Fnan
sVaggregate_p
p950
Nssa(dp951
Vsupport
p952
(lp953
I1
aI4
aI8
asVterms
p954
(lp955
VPoland
p956
aVOccupation
p957
aVAccount
p958
a(lp959
asVcoverage
p960
(lp961
I1
aI4
aI8
aI17
aI19
aI22
aI25
aI26
aI28
asVscores
p962
(dp963
Vz_score
p964
Fnan
sVpage_p
p965
Fnan
sVwracc
p966
F0
sVgsea_p
p967
Fnan
sVenrichment_score
p968
F0.079365079365079361
sVunadjusted_p
p969
F0.94567716141929037
sVfisher_p
p970
Fnan
sVaggregate_p
p971
Nssa(dp972
Vsupport
p973
(lp974
I0
aI3
aI6
aI7
aI10
aI11
aI13
asVterms
p975
(lp976
VEurope
p977
aVOccupation
p978
aVInvestmentFund
p979
a(lp980
asVcoverage
p981
(lp982
I0
aI3
aI6
aI7
aI10
aI11
aI13
aI15
aI16
aI18
aI19
aI22
aI28
asVscores
p983
(dp984
Vz_score
p985
Fnan
sVpage_p
p986
Fnan
sVwracc
p987
F0
sVgsea_p
p988
Fnan
sVenrichment_score
p989
F0.076923076923076927
sVunadjusted_p
p990
F0.5000000000000111
sVfisher_p
p991
Fnan
sVaggregate_p
p992
Nssa(dp993
Vsupport
p994
(lp995
I0
aI3
aI7
aI10
aI11
aI13
asVterms
p996
(lp997
VEurope
p998
aVOccupation
p999
aVClassic
p1000
a(lp1001
asVcoverage
p1002
(lp1003
I0
aI3
aI7
aI10
aI11
aI13
aI15
aI17
aI19
aI20
aI21
aI22
aI24
aI26
aI27
aI29
asVscores
p1004
(dp1005
Vz_score
p1006
Fnan
sVpage_p
p1007
Fnan
sVwracc
p1008
F0
sVgsea_p
p1009
Fnan
sVenrichment_score
p1010
F0.0625
sVunadjusted_p
p1011
F0.96720226058281378
sVfisher_p
p1012
Fnan
sVaggregate_p
p1013
Nssa(dp1014
Vsupport
p1015
(lp1016
I1
aI3
aI7
aI11
aI12
asVterms
p1017
(lp1018
VEurope
p1019
aVOccupation
p1020
aVCar
p1021
a(lp1022
asVcoverage
p1023
(lp1024
I1
aI3
aI7
aI11
aI12
aI15
aI17
aI20
aI21
aI24
aI28
aI29
asVscores
p1025
(dp1026
Vz_score
p1027
Fnan
sVpage_p
p1028
Fnan
sVwracc
p1029
F0
sVgsea_p
p1030
Fnan
sVenrichment_score
p1031
F0.055555555555555552
sVunadjusted_p
p1032
F0.86822904337304796
sVfisher_p
p1033
Fnan
sVaggregate_p
p1034
Nssa(dp1035
Vsupport
p1036
(lp1037
I1
aI3
aI5
aI9
aI12
aI14
asVterms
p1038
(lp1039
VEurope
p1040
aVPublic
p1041
aVLoan
p1042
a(lp1043
asVcoverage
p1044
(lp1045
I1
aI3
aI5
aI9
aI12
aI14
aI17
aI19
aI20
aI22
aI25
aI27
aI29
asVscores
p1046
(dp1047
Vz_score
p1048
Fnan
sVpage_p
p1049
Fnan
sVwracc
p1050
F0
sVgsea_p
p1051
Fnan
sVenrichment_score
p1052
F0.054298642533936667
sVunadjusted_p
p1053
F0.76893132381177098
sVfisher_p
p1054
Fnan
sVaggregate_p
p1055
Nssa(dp1056
Vsupport
p1057
(lp1058
I4
aI10
asVterms
p1059
(lp1060
VEurope
p1061
aVPrivate
p1062
aVApartment
p1063
a(lp1064
asVcoverage
p1065
(lp1066
I4
aI10
aI16
aI18
aI23
asVscores
p1067
(dp1068
Vz_score
p1069
Fnan
sVpage_p
p1070
Fnan
sVwracc
p1071
F0
sVgsea_p
p1072
Fnan
sVenrichment_score
p1073
F0.040000000000000008
sVunadjusted_p
p1074
F0.83524904214559847
sVfisher_p
p1075
Fnan
sVaggregate_p
p1076
Nssa(dp1077
Vsupport
p1078
(lp1079
I4
aI6
aI11
asVterms
p1080
(lp1081
VEurope
p1082
aVPrivate
p1083
aVDeposit
p1084
a(lp1085
asVcoverage
p1086
(lp1087
I4
aI6
aI11
aI15
aI18
aI23
aI24
aI28
asVscores
p1088
(dp1089
Vz_score
p1090
Fnan
sVpage_p
p1091
Fnan
sVwracc
p1092
F0
sVgsea_p
p1093
Fnan
sVenrichment_score
p1094
F0.022727272727272721
sVunadjusted_p
p1095
F0.89262035648842131
sVfisher_p
p1096
Fnan
sVaggregate_p
p1097
Nssa(dp1098
Vsupport
p1099
(lp1100
I3
aI12
asVterms
p1101
(lp1102
VCalabria
p1103
aVOccupation
p1104
aVLoan
p1105
aVAccount
p1106
a(lp1107
asVcoverage
p1108
(lp1109
I3
aI12
aI20
aI23
aI24
aI27
aI29
asVscores
p1110
(dp1111
Vz_score
p1112
Fnan
sVpage_p
p1113
Fnan
sVwracc
p1114
F0
sVgsea_p
p1115
Fnan
sVenrichment_score
p1116
F0.012422360248447201
sVunadjusted_p
p1117
F0.95996168582375474
sVfisher_p
p1118
Fnan
sVaggregate_p
p1119
Nssa(dp1120
Vsupport
p1121
(lp1122
I4
aI6
aI7
aI10
aI11
asVterms
p1123
(lp1124
VEurope
p1125
aVPrivate
p1126
aVAccount
p1127
a(lp1128
asVcoverage
p1129
(lp1130
I4
aI6
aI7
aI10
aI11
aI15
aI16
aI18
aI23
aI24
aI28
asVscores
p1131
(dp1132
Vz_score
p1133
Fnan
sVpage_p
p1134
Fnan
sVwracc
p1135
F0
sVgsea_p
p1136
Fnan
sVenrichment_score
p1137
F0.0095693779904306442
sVunadjusted_p
p1138
F0.77513743128435442
sVfisher_p
p1139
Fnan
sVaggregate_p
p1140
Nssa(dp1141
Vsupport
p1142
(lp1143
I5
aI9
aI14
asVterms
p1144
(lp1145
VEurope
p1146
aVPublic
p1147
aVApartment
p1148
a(lp1149
asVcoverage
p1150
(lp1151
I5
aI9
aI14
aI22
aI25
aI27
asVscores
p1152
(dp1153
Vz_score
p1154
Fnan
sVpage_p
p1155
Fnan
sVwracc
p1156
F0
sVgsea_p
p1157
Fnan
sVenrichment_score
p1158
F2.7755575615628914e-17
sVunadjusted_p
p1159
F0.67432950191571095
sVfisher_p
p1160
Fnan
sVaggregate_p
p1161
Nssa(dp1162
Vsupport
p1163
(lp1164
I3
aI5
aI9
aI12
asVterms
p1165
(lp1166
VItaly
p1167
aVOccupation
p1168
aVLoan
p1169
a(lp1170
asVcoverage
p1171
(lp1172
I3
aI5
aI9
aI12
aI16
aI20
aI23
aI24
aI27
aI29
asVscores
p1173
(dp1174
Vz_score
p1175
Fnan
sVpage_p
p1176
Fnan
sVwracc
p1177
F0
sVgsea_p
p1178
Fnan
sVenrichment_score
p1179
F-1.3877787807814457e-17
sVunadjusted_p
p1180
F0.87746126936531554
sVfisher_p
p1181
Fnan
sVaggregate_p
p1182
Nssa(dp1183
Vsupport
p1184
(lp1185
I6
aI7
aI10
aI11
asVterms
p1186
(lp1187
VEurope
p1188
aVPrivate
p1189
aVInvestmentFund
p1190
a(lp1191
asVcoverage
p1192
(lp1193
I6
aI7
aI10
aI11
aI15
aI16
aI18
aI28
asVscores
p1194
(dp1195
Vz_score
p1196
Fnan
sVpage_p
p1197
Fnan
sVwracc
p1198
F0
sVgsea_p
p1199
Fnan
sVenrichment_score
p1200
F-0.022727272727272763
sVunadjusted_p
p1201
F0.65917041479261362
sVfisher_p
p1202
Fnan
sVaggregate_p
p1203
Nssa(dp1204
Vsupport
p1205
(lp1206
I4
aI5
aI9
aI10
aI14
asVterms
p1207
(lp1208
VEurope
p1209
aVOccupation
p1210
aVApartment
p1211
a(lp1212
asVcoverage
p1213
(lp1214
I4
aI5
aI9
aI10
aI14
aI16
aI18
aI22
aI23
aI25
aI27
asVscores
p1215
(dp1216
Vz_score
p1217
Fnan
sVpage_p
p1218
Fnan
sVwracc
p1219
F0
sVgsea_p
p1220
Fnan
sVenrichment_score
p1221
F-0.028708133971291849
sVunadjusted_p
p1222
F0.77513743128435442
sVfisher_p
p1223
Fnan
sVaggregate_p
p1224
Nssa(dp1225
Vsupport
p1226
(lp1227
I7
aI10
aI11
asVterms
p1228
(lp1229
VEurope
p1230
aVPrivate
p1231
aVClassic
p1232
a(lp1233
asVcoverage
p1234
(lp1235
I7
aI10
aI11
aI15
aI24
asVscores
p1236
(dp1237
Vz_score
p1238
Fnan
sVpage_p
p1239
Fnan
sVwracc
p1240
F0
sVgsea_p
p1241
Fnan
sVenrichment_score
p1242
F-0.040000000000000001
sVunadjusted_p
p1243
F0.500000000000002
sVfisher_p
p1244
Fnan
sVaggregate_p
p1245
Nssa(dp1246
Vsupport
p1247
(lp1248
I7
aI10
aI11
asVterms
p1249
(lp1250
VEurope
p1251
aVService
p1252
aVLoan
p1253
a(lp1254
asVcoverage
p1255
(lp1256
I7
aI10
aI11
aI15
aI16
asVscores
p1257
(dp1258
Vz_score
p1259
Fnan
sVpage_p
p1260
Fnan
sVwracc
p1261
F0
sVgsea_p
p1262
Fnan
sVenrichment_score
p1263
F-0.040000000000000001
sVunadjusted_p
p1264
F0.500000000000002
sVfisher_p
p1265
Fnan
sVaggregate_p
p1266
Nssa(dp1267
Vsupport
p1268
(lp1269
I7
aI10
aI11
asVterms
p1270
(lp1271
VGermany
p1272
aVOccupation
p1273
aVClassic
p1274
a(lp1275
asVcoverage
p1276
(lp1277
I7
aI10
aI11
aI15
aI21
asVscores
p1278
(dp1279
Vz_score
p1280
Fnan
sVpage_p
p1281
Fnan
sVwracc
p1282
F0
sVgsea_p
p1283
Fnan
sVenrichment_score
p1284
F-0.040000000000000001
sVunadjusted_p
p1285
F0.500000000000002
sVfisher_p
p1286
Fnan
sVaggregate_p
p1287
Nssa(dp1288
Vsupport
p1289
(lp1290
I7
aI10
aI11
asVterms
p1291
(lp1292
VGermany
p1293
aVPrivate
p1294
aVLoan
p1295
a(lp1296
asVcoverage
p1297
(lp1298
I7
aI10
aI11
aI15
aI18
asVscores
p1299
(dp1300
Vz_score
p1301
Fnan
sVpage_p
p1302
Fnan
sVwracc
p1303
F0
sVgsea_p
p1304
Fnan
sVenrichment_score
p1305
F-0.040000000000000001
sVunadjusted_p
p1306
F0.500000000000002
sVfisher_p
p1307
Fnan
sVaggregate_p
p1308
Nssa(dp1309
Vsupport
p1310
(lp1311
I10
aI13
asVterms
p1312
(lp1313
VEurope
p1314
aVOccupation
p1315
aVEuropeShare
p1316
a(lp1317
asVcoverage
p1318
(lp1319
I10
aI13
aI16
aI19
aI22
asVscores
p1320
(dp1321
Vz_score
p1322
Fnan
sVpage_p
p1323
Fnan
sVwracc
p1324
F0
sVgsea_p
p1325
Fnan
sVenrichment_score
p1326
F-0.040000000000000001
sVunadjusted_p
p1327
F0.83524904214559847
sVfisher_p
p1328
Fnan
sVaggregate_p
p1329
Nssa(dp1330
Vsupport
p1331
(lp1332
I7
aI11
asVterms
p1333
(lp1334
VEurope
p1335
aVPrivate
p1336
aVCar
p1337
a(lp1338
asVcoverage
p1339
(lp1340
I7
aI11
aI15
aI24
aI28
asVscores
p1341
(dp1342
Vz_score
p1343
Fnan
sVpage_p
p1344
Fnan
sVwracc
p1345
F0
sVgsea_p
p1346
Fnan
sVenrichment_score
p1347
F-0.040000000000000001
sVunadjusted_p
p1348
F0.83524904214559847
sVfisher_p
p1349
Fnan
sVaggregate_p
p1350
Nssa(dp1351
Vsupport
p1352
(lp1353
I7
aI11
asVterms
p1354
(lp1355
VEurope
p1356
aVPrivate
p1357
aVInsurance
p1358
a(lp1359
asVcoverage
p1360
(lp1361
I7
aI11
aI16
aI24
aI28
asVscores
p1362
(dp1363
Vz_score
p1364
Fnan
sVpage_p
p1365
Fnan
sVwracc
p1366
F0
sVgsea_p
p1367
Fnan
sVenrichment_score
p1368
F-0.040000000000000001
sVunadjusted_p
p1369
F0.83524904214559847
sVfisher_p
p1370
Fnan
sVaggregate_p
p1371
Nssa(dp1372
Vsupport
p1373
(lp1374
I7
aI10
aI11
aI14
asVterms
p1375
(lp1376
VGermany
p1377
aVOccupation
p1378
aVLoan
p1379
a(lp1380
asVcoverage
p1381
(lp1382
I7
aI10
aI11
aI14
aI15
aI18
aI21
asVscores
p1383
(dp1384
Vz_score
p1385
Fnan
sVpage_p
p1386
Fnan
sVwracc
p1387
F0
sVgsea_p
p1388
Fnan
sVenrichment_score
p1389
F-0.043478260869565216
sVunadjusted_p
p1390
F0.50000000000000833
sVfisher_p
p1391
Fnan
sVaggregate_p
p1392
Nssa(dp1393
Vsupport
p1394
(lp1395
I4
aI7
aI10
aI11
asVterms
p1396
(lp1397
VEurope
p1398
aVPrivate
p1399
aVLoan
p1400
a(lp1401
asVcoverage
p1402
(lp1403
I4
aI7
aI10
aI11
aI15
aI16
aI18
aI23
aI24
aI28
asVscores
p1404
(dp1405
Vz_score
p1406
Fnan
sVpage_p
p1407
Fnan
sVwracc
p1408
F0
sVgsea_p
p1409
Fnan
sVenrichment_score
p1410
F-0.050000000000000003
sVunadjusted_p
p1411
F0.87746126936531554
sVfisher_p
p1412
Fnan
sVaggregate_p
p1413
Nssa(dp1414
Vsupport
p1415
(lp1416
I1
aI3
aI4
aI5
aI7
aI9
aI10
aI11
aI12
aI14
asVterms
p1417
(lp1418
VEurope
p1419
aVOccupation
p1420
aVLoan
p1421
a(lp1422
asVcoverage
p1423
(lp1424
I1
aI3
aI4
aI5
aI7
aI9
aI10
aI11
aI12
aI14
aI15
aI16
aI17
aI18
aI19
aI20
aI21
aI22
aI23
aI24
aI25
aI27
aI28
aI29
asVscores
p1425
(dp1426
Vz_score
p1427
Fnan
sVpage_p
p1428
Fnan
sVwracc
p1429
F0
sVgsea_p
p1430
Fnan
sVenrichment_score
p1431
F-0.125
sVunadjusted_p
p1432
F0.99157088122605352
sVfisher_p
p1433
Fnan
sVaggregate_p
p1434
Nssa.